target datalayout = "e-m:e-p270:32:32-p271:32:32-p272:64:64-i64:64-i128:128-f80:128-n8:16:32:64-S128"
target triple = "x86_64-pc-linux-gnu"

%struct.DdNode = type { i32, i32, ptr, %union.anon, i64 }
%union.anon = type { %struct.DdChildren }
%struct.DdChildren = type { ptr, ptr }
%struct.DdManager = type { %struct.DdNode, ptr, ptr, ptr, ptr, ptr, ptr, ptr, i32, i32, double, double, double, i32, i32, i32, i32, i32, i32, ptr, ptr, %struct.DdSubtable, i32, i32, i32, i32, i32, i32, i32, double, i32, i32, i32, ptr, i64, double, i32, ptr, ptr, ptr, ptr, ptr, ptr, ptr, i32, ptr, ptr, ptr, ptr, ptr, ptr, i32, i32, i32, double, i32, i32, i32, i32, double, double, i32, i32, i32, i32, i32, i32, i32, i32, i32, ptr, ptr, i32, i32, i32, i32, i32, i32, ptr, ptr, ptr, ptr, ptr, ptr, ptr, ptr, i32, i64, i64, i64, i32, i64, i64, double, double, double, double, double, double, i32, ptr, ptr, i64 }
%struct.DdSubtable = type { ptr, i32, i32, i32, i32, i32, i32, i32, i32, i32, i32, i32 }

@two = internal global ptr null, align 8
@.str = private unnamed_addr constant [31 x i8] c"Error: Can only abstract cubes\00", align 1

; Function Attrs: nounwind uwtable
define internal i32 @addCheckPositiveCube(ptr noundef %0, ptr noundef %1) #0 {
  %3 = alloca i32, align 4
  %4 = alloca ptr, align 8
  %5 = alloca ptr, align 8
  store ptr %0, ptr %4, align 8, !tbaa !3
  store ptr %1, ptr %5, align 8, !tbaa !8
  %6 = load ptr, ptr %5, align 8, !tbaa !8
  %7 = ptrtoint ptr %6 to i64
  %8 = and i64 %7, 1
  %9 = trunc i64 %8 to i32
  %10 = icmp ne i32 %9, 0
  br i1 %10, label %11, label %12

11:                                               ; preds = %2
  store i32 0, ptr %3, align 4
  br label %42

12:                                               ; preds = %2
  %13 = load ptr, ptr %5, align 8, !tbaa !8
  %14 = load ptr, ptr %4, align 8, !tbaa !3
  %15 = getelementptr inbounds nuw %struct.DdManager, ptr %14, i32 0, i32 1
  %16 = load ptr, ptr %15, align 8, !tbaa !31
  %17 = icmp eq ptr %13, %16
  br i1 %17, label %18, label %19

18:                                               ; preds = %12
  store i32 1, ptr %3, align 4
  br label %42

19:                                               ; preds = %12
  %20 = load ptr, ptr %5, align 8, !tbaa !8
  %21 = getelementptr inbounds nuw %struct.DdNode, ptr %20, i32 0, i32 0
  %22 = load i32, ptr %21, align 8, !tbaa !32
  %23 = icmp eq i32 %22, 2147483647
  br i1 %23, label %24, label %25

24:                                               ; preds = %19
  store i32 0, ptr %3, align 4
  br label %42

25:                                               ; preds = %19
  %26 = load ptr, ptr %5, align 8, !tbaa !8
  %27 = getelementptr inbounds nuw %struct.DdNode, ptr %26, i32 0, i32 3
  %28 = getelementptr inbounds nuw %struct.DdChildren, ptr %27, i32 0, i32 1
  %29 = load ptr, ptr %28, align 8, !tbaa !33
  %30 = load ptr, ptr %4, align 8, !tbaa !3
  %31 = getelementptr inbounds nuw %struct.DdManager, ptr %30, i32 0, i32 2
  %32 = load ptr, ptr %31, align 8, !tbaa !34
  %33 = icmp eq ptr %29, %32
  br i1 %33, label %34, label %41

34:                                               ; preds = %25
  %35 = load ptr, ptr %4, align 8, !tbaa !3
  %36 = load ptr, ptr %5, align 8, !tbaa !8
  %37 = getelementptr inbounds nuw %struct.DdNode, ptr %36, i32 0, i32 3
  %38 = getelementptr inbounds nuw %struct.DdChildren, ptr %37, i32 0, i32 0
  %39 = load ptr, ptr %38, align 8, !tbaa !33
  %40 = call i32 @addCheckPositiveCube(ptr noundef %35, ptr noundef %39)
  store i32 %40, ptr %3, align 4
  br label %42

41:                                               ; preds = %25
  store i32 0, ptr %3, align 4
  br label %42

42:                                               ; preds = %41, %34, %24, %18, %11
  %43 = load i32, ptr %3, align 4
  ret i32 %43
}

; Function Attrs: nounwind uwtable
define ptr @Cudd_addExistAbstract(ptr noundef %0, ptr noundef %1, ptr noundef %2) #0 {
  %4 = alloca ptr, align 8
  %5 = alloca ptr, align 8
  %6 = alloca ptr, align 8
  %7 = alloca ptr, align 8
  %8 = alloca ptr, align 8
  %9 = alloca i32, align 4
  store ptr %0, ptr %5, align 8, !tbaa !3
  store ptr %1, ptr %6, align 8, !tbaa !8
  store ptr %2, ptr %7, align 8, !tbaa !8
  call void @llvm.lifetime.start.p0(i64 8, ptr %8) #4
  %10 = load ptr, ptr %5, align 8, !tbaa !3
  %11 = call ptr @cuddUniqueConst(ptr noundef %10, double noundef 2.000000e+00)
  store ptr %11, ptr @two, align 8, !tbaa !8
  %12 = load ptr, ptr @two, align 8, !tbaa !8
  %13 = icmp eq ptr %12, null
  br i1 %13, label %14, label %15

14:                                               ; preds = %3
  store ptr null, ptr %4, align 8
  store i32 1, ptr %9, align 4
  br label %69

15:                                               ; preds = %3
  %16 = load ptr, ptr @two, align 8, !tbaa !8
  %17 = ptrtoint ptr %16 to i64
  %18 = and i64 %17, -2
  %19 = inttoptr i64 %18 to ptr
  %20 = getelementptr inbounds nuw %struct.DdNode, ptr %19, i32 0, i32 1
  %21 = load i32, ptr %20, align 4, !tbaa !10
  %22 = add i32 %21, 1
  store i32 %22, ptr %20, align 4, !tbaa !10
  %23 = load ptr, ptr %5, align 8, !tbaa !3
  %24 = load ptr, ptr %7, align 8, !tbaa !8
  %25 = call i32 @addCheckPositiveCube(ptr noundef %23, ptr noundef %24)
  %26 = icmp eq i32 %25, 0
  br i1 %26, label %27, label %32

27:                                               ; preds = %15
  %28 = load ptr, ptr %5, align 8, !tbaa !3
  %29 = getelementptr inbounds nuw %struct.DdManager, ptr %28, i32 0, i32 85
  %30 = load ptr, ptr %29, align 8, !tbaa !14
  %31 = call i32 (ptr, ptr, ...) @fprintf(ptr noundef %30, ptr noundef @.str) #4
  store ptr null, ptr %4, align 8
  store i32 1, ptr %9, align 4
  br label %69

32:                                               ; preds = %15
  br label %33

33:                                               ; preds = %40, %32
  %34 = load ptr, ptr %5, align 8, !tbaa !3
  %35 = getelementptr inbounds nuw %struct.DdManager, ptr %34, i32 0, i32 55
  store i32 0, ptr %35, align 8, !tbaa !28
  %36 = load ptr, ptr %5, align 8, !tbaa !3
  %37 = load ptr, ptr %6, align 8, !tbaa !8
  %38 = load ptr, ptr %7, align 8, !tbaa !8
  %39 = call ptr @cuddAddExistAbstractRecur(ptr noundef %36, ptr noundef %37, ptr noundef %38)
  store ptr %39, ptr %8, align 8, !tbaa !8
  br label %40

40:                                               ; preds = %33
  %41 = load ptr, ptr %5, align 8, !tbaa !3
  %42 = getelementptr inbounds nuw %struct.DdManager, ptr %41, i32 0, i32 55
  %43 = load i32, ptr %42, align 8, !tbaa !28
  %44 = icmp eq i32 %43, 1
  br i1 %44, label %33, label %45, !llvm.loop !29

45:                                               ; preds = %40
  %46 = load ptr, ptr %8, align 8, !tbaa !8
  %47 = icmp eq ptr %46, null
  br i1 %47, label %48, label %51

48:                                               ; preds = %45
  %49 = load ptr, ptr %5, align 8, !tbaa !3
  %50 = load ptr, ptr @two, align 8, !tbaa !8
  call void @Cudd_RecursiveDeref(ptr noundef %49, ptr noundef %50)
  store ptr null, ptr %4, align 8
  store i32 1, ptr %9, align 4
  br label %69

51:                                               ; preds = %45
  %52 = load ptr, ptr %8, align 8, !tbaa !8
  %53 = ptrtoint ptr %52 to i64
  %54 = and i64 %53, -2
  %55 = inttoptr i64 %54 to ptr
  %56 = getelementptr inbounds nuw %struct.DdNode, ptr %55, i32 0, i32 1
  %57 = load i32, ptr %56, align 4, !tbaa !10
  %58 = add i32 %57, 1
  store i32 %58, ptr %56, align 4, !tbaa !10
  %59 = load ptr, ptr %5, align 8, !tbaa !3
  %60 = load ptr, ptr @two, align 8, !tbaa !8
  call void @Cudd_RecursiveDeref(ptr noundef %59, ptr noundef %60)
  %61 = load ptr, ptr %8, align 8, !tbaa !8
  %62 = ptrtoint ptr %61 to i64
  %63 = and i64 %62, -2
  %64 = inttoptr i64 %63 to ptr
  %65 = getelementptr inbounds nuw %struct.DdNode, ptr %64, i32 0, i32 1
  %66 = load i32, ptr %65, align 4, !tbaa !10
  %67 = add i32 %66, -1
  store i32 %67, ptr %65, align 4, !tbaa !10
  %68 = load ptr, ptr %8, align 8, !tbaa !8
  store ptr %68, ptr %4, align 8
  store i32 1, ptr %9, align 4
  br label %69

69:                                               ; preds = %51, %48, %27, %14
  call void @llvm.lifetime.end.p0(i64 8, ptr %8) #4
  %70 = load ptr, ptr %4, align 8
  ret ptr %70
}