; Function Attrs: nounwind uwtable
define ptr @Cudd_addExistAbstract(ptr noundef %0, ptr noundef %1, ptr noundef %2) #0 {
  %4 = tail call ptr @cuddUniqueConst(ptr noundef %0, double noundef 2.000000e+00) #3
  store ptr %4, ptr @two, align 8, !tbaa !3
  %5 = icmp eq ptr %4, null
  br i1 %5, label %53, label %6

6:                                                ; preds = %3
  %7 = ptrtoint ptr %4 to i64
  %8 = and i64 %7, -2
  %9 = inttoptr i64 %8 to ptr
  %10 = getelementptr inbounds nuw i8, ptr %9, i64 4
  %11 = load i32, ptr %10, align 4, !tbaa !8
  %12 = add i32 %11, 1
  store i32 %12, ptr %10, align 4, !tbaa !8
  %13 = ptrtoint ptr %2 to i64
  %14 = and i64 %13, 1
  %.not10.i = icmp eq i64 %14, 0
  br i1 %.not10.i, label %.lr.ph.i, label %.loopexit

.lr.ph.i:                                         ; preds = %6
  %15 = getelementptr inbounds nuw i8, ptr %0, i64 40
  %16 = load ptr, ptr %15, align 8, !tbaa !12
  %17 = getelementptr inbounds nuw i8, ptr %0, i64 48
  br label %18

18:                                               ; preds = %tailrecurse.i, %.lr.ph.i
  %.tr911.i = phi ptr [ %2, %.lr.ph.i ], [ %30, %tailrecurse.i ]
  %19 = icmp eq ptr %.tr911.i, %16
  br i1 %19, label %addCheckPositiveCube.exit.preheader, label %21

addCheckPositiveCube.exit.preheader:              ; preds = %18
  %20 = getelementptr inbounds nuw i8, ptr %0, i64 448
  br label %addCheckPositiveCube.exit

21:                                               ; preds = %18
  %22 = load i32, ptr %.tr911.i, align 8, !tbaa !26
  %23 = icmp eq i32 %22, 2147483647
  br i1 %23, label %.loopexit, label %24

24:                                               ; preds = %21
  %25 = getelementptr inbounds nuw i8, ptr %.tr911.i, i64 24
  %26 = load ptr, ptr %25, align 8, !tbaa !27
  %27 = load ptr, ptr %17, align 8, !tbaa !28
  %28 = icmp eq ptr %26, %27
  br i1 %28, label %tailrecurse.i, label %.loopexit

tailrecurse.i:                                    ; preds = %24
  %29 = getelementptr inbounds nuw i8, ptr %.tr911.i, i64 16
  %30 = load ptr, ptr %29, align 8, !tbaa !27
  %31 = ptrtoint ptr %30 to i64
  %32 = and i64 %31, 1
  %.not.i = icmp eq i64 %32, 0
  br i1 %.not.i, label %18, label %.loopexit

.loopexit:                                        ; preds = %24, %21, %tailrecurse.i, %6
  %33 = getelementptr inbounds nuw i8, ptr %0, i64 616
  %34 = load ptr, ptr %33, align 8, !tbaa !29
  %35 = tail call i64 @fwrite(ptr nonnull @.str, i64 30, i64 1, ptr %34)
  br label %53

addCheckPositiveCube.exit:                        ; preds = %addCheckPositiveCube.exit.preheader, %addCheckPositiveCube.exit
  store i32 0, ptr %20, align 8, !tbaa !30
  %36 = tail call ptr @cuddAddExistAbstractRecur(ptr noundef nonnull %0, ptr noundef %1, ptr noundef %2)
  %37 = load i32, ptr %20, align 8, !tbaa !30
  %38 = icmp eq i32 %37, 1
  br i1 %38, label %addCheckPositiveCube.exit, label %39, !llvm.loop !31

39:                                               ; preds = %addCheckPositiveCube.exit
  %40 = icmp eq ptr %36, null
  br i1 %40, label %41, label %43

41:                                               ; preds = %39
  %42 = load ptr, ptr @two, align 8, !tbaa !3
  tail call void @Cudd_RecursiveDeref(ptr noundef nonnull %0, ptr noundef %42) #3
  br label %53

43:                                               ; preds = %39
  %44 = ptrtoint ptr %36 to i64
  %45 = and i64 %44, -2
  %46 = inttoptr i64 %45 to ptr
  %47 = getelementptr inbounds nuw i8, ptr %46, i64 4
  %48 = load i32, ptr %47, align 4, !tbaa !8
  %49 = add i32 %48, 1
  store i32 %49, ptr %47, align 4, !tbaa !8
  %50 = load ptr, ptr @two, align 8, !tbaa !3
  tail call void @Cudd_RecursiveDeref(ptr noundef nonnull %0, ptr noundef %50) #3
  %51 = load i32, ptr %47, align 4, !tbaa !8
  %52 = add i32 %51, -1
  store i32 %52, ptr %47, align 4, !tbaa !8
  br label %53

53:                                               ; preds = %3, %43, %41, %.loopexit
  %.0 = phi ptr [ null, %.loopexit ], [ null, %41 ], [ %36, %43 ], [ null, %3 ]
  ret ptr %.0
}